target datalayout = "e-m:e-p270:32:32-p271:32:32-p272:64:64-i64:64-i128:128-f80:128-n8:16:32:64-S128"
target triple = "x86_64-pc-linux-gnu"

%"class.llvm::TargetRegisterClass" = type { ptr, ptr, ptr, %"struct.llvm::LaneBitmask", i8, i8, i8, i8, i8, ptr, ptr }
%"struct.llvm::LaneBitmask" = type { i64 }
%"class.llvm::Register" = type { i32 }
%"class.llvm::MVT" = type { i16 }

@_ZN4llvm7AArch6413FPR32RegClassE = external global %"class.llvm::TargetRegisterClass", align 8
@_ZN4llvm7AArch6413FPR16RegClassE = external global %"class.llvm::TargetRegisterClass", align 8
@_ZN4llvm7AArch6412FPR8RegClassE = external global %"class.llvm::TargetRegisterClass", align 8

; Function Attrs: mustprogress nounwind uwtable
define linkonce_odr hidden noundef i32 @_ZNK4llvm8RegistercvjEv(ptr noundef nonnull align 4 dereferenceable(4) %0) #0 comdat align 2 {
  %2 = alloca ptr, align 8
  store ptr %0, ptr %2, align 8
  %3 = load ptr, ptr %2, align 8
  %4 = getelementptr inbounds nuw %"class.llvm::Register", ptr %3, i32 0, i32 0
  %5 = load i32, ptr %4, align 4
  ret i32 %5
}

; Function Attrs: mustprogress nounwind uwtable
define internal noundef i32 @_ZN12_GLOBAL__N_115AArch64FastISel39fastEmit_ISD_VECREDUCE_UMIN_MVT_v4i32_rEN4llvm3MVTEj(ptr noundef nonnull align 8 dereferenceable(192) %0, i16 %1, i32 noundef %2) #0 align 2 {
  %4 = alloca i32, align 4
  %5 = alloca %"class.llvm::MVT", align 2
  %6 = alloca ptr, align 8
  %7 = alloca i32, align 4
  %8 = alloca %"class.llvm::Register", align 4
  %9 = getelementptr inbounds nuw %"class.llvm::MVT", ptr %5, i32 0, i32 0
  store i16 %1, ptr %9, align 2
  store ptr %0, ptr %6, align 8
  store i32 %2, ptr %7, align 4
  %10 = load ptr, ptr %6, align 8
  %11 = getelementptr inbounds nuw %"class.llvm::MVT", ptr %5, i32 0, i32 0
  %12 = load i16, ptr %11, align 2
  %13 = zext i16 %12 to i32
  %14 = icmp ne i32 %13, 7
  br i1 %14, label %15, label %16

15:                                               ; preds = %3
  store i32 0, ptr %4, align 4
  br label %21

16:                                               ; preds = %3
  %17 = load i32, ptr %7, align 4
  %18 = call i32 @_ZN4llvm8FastISel14fastEmitInst_rEjPKNS_19TargetRegisterClassEj(ptr noundef nonnull align 8 dereferenceable(176) %10, i32 noundef 7335, ptr noundef @_ZN4llvm7AArch6413FPR32RegClassE, i32 noundef %17)
  %19 = getelementptr inbounds nuw %"class.llvm::Register", ptr %8, i32 0, i32 0
  store i32 %18, ptr %19, align 4
  %20 = call noundef i32 @_ZNK4llvm8RegistercvjEv(ptr noundef nonnull align 4 dereferenceable(4) %8)
  store i32 %20, ptr %4, align 4
  br label %21

21:                                               ; preds = %16, %15
  %22 = load i32, ptr %4, align 4
  ret i32 %22
}

; Function Attrs: mustprogress nounwind uwtable
define internal noundef i32 @_ZN12_GLOBAL__N_115AArch64FastISel39fastEmit_ISD_VECREDUCE_UMIN_MVT_v8i16_rEN4llvm3MVTEj(ptr noundef nonnull align 8 dereferenceable(192) %0, i16 %1, i32 noundef %2) #0 align 2 {
  %4 = alloca i32, align 4
  %5 = alloca %"class.llvm::MVT", align 2
  %6 = alloca ptr, align 8
  %7 = alloca i32, align 4
  %8 = alloca %"class.llvm::Register", align 4
  %9 = getelementptr inbounds nuw %"class.llvm::MVT", ptr %5, i32 0, i32 0
  store i16 %1, ptr %9, align 2
  store ptr %0, ptr %6, align 8
  store i32 %2, ptr %7, align 4
  %10 = load ptr, ptr %6, align 8
  %11 = getelementptr inbounds nuw %"class.llvm::MVT", ptr %5, i32 0, i32 0
  %12 = load i16, ptr %11, align 2
  %13 = zext i16 %12 to i32
  %14 = icmp ne i32 %13, 6
  br i1 %14, label %15, label %16

15:                                               ; preds = %3
  store i32 0, ptr %4, align 4
  br label %21

16:                                               ; preds = %3
  %17 = load i32, ptr %7, align 4
  %18 = call i32 @_ZN4llvm8FastISel14fastEmitInst_rEjPKNS_19TargetRegisterClassEj(ptr noundef nonnull align 8 dereferenceable(176) %10, i32 noundef 7336, ptr noundef @_ZN4llvm7AArch6413FPR16RegClassE, i32 noundef %17)
  %19 = getelementptr inbounds nuw %"class.llvm::Register", ptr %8, i32 0, i32 0
  store i32 %18, ptr %19, align 4
  %20 = call noundef i32 @_ZNK4llvm8RegistercvjEv(ptr noundef nonnull align 4 dereferenceable(4) %8)
  store i32 %20, ptr %4, align 4
  br label %21

21:                                               ; preds = %16, %15
  %22 = load i32, ptr %4, align 4
  ret i32 %22
}

; Function Attrs: mustprogress nounwind uwtable
define internal noundef i32 @_ZN12_GLOBAL__N_115AArch64FastISel39fastEmit_ISD_VECREDUCE_UMIN_MVT_v4i16_rEN4llvm3MVTEj(ptr noundef nonnull align 8 dereferenceable(192) %0, i16 %1, i32 noundef %2) #0 align 2 {
  %4 = alloca i32, align 4
  %5 = alloca %"class.llvm::MVT", align 2
  %6 = alloca ptr, align 8
  %7 = alloca i32, align 4
  %8 = alloca %"class.llvm::Register", align 4
  %9 = getelementptr inbounds nuw %"class.llvm::MVT", ptr %5, i32 0, i32 0
  store i16 %1, ptr %9, align 2
  store ptr %0, ptr %6, align 8
  store i32 %2, ptr %7, align 4
  %10 = load ptr, ptr %6, align 8
  %11 = getelementptr inbounds nuw %"class.llvm::MVT", ptr %5, i32 0, i32 0
  %12 = load i16, ptr %11, align 2
  %13 = zext i16 %12 to i32
  %14 = icmp ne i32 %13, 6
  br i1 %14, label %15, label %16

15:                                               ; preds = %3
  store i32 0, ptr %4, align 4
  br label %21

16:                                               ; preds = %3
  %17 = load i32, ptr %7, align 4
  %18 = call i32 @_ZN4llvm8FastISel14fastEmitInst_rEjPKNS_19TargetRegisterClassEj(ptr noundef nonnull align 8 dereferenceable(176) %10, i32 noundef 7334, ptr noundef @_ZN4llvm7AArch6413FPR16RegClassE, i32 noundef %17)
  %19 = getelementptr inbounds nuw %"class.llvm::Register", ptr %8, i32 0, i32 0
  store i32 %18, ptr %19, align 4
  %20 = call noundef i32 @_ZNK4llvm8RegistercvjEv(ptr noundef nonnull align 4 dereferenceable(4) %8)
  store i32 %20, ptr %4, align 4
  br label %21

21:                                               ; preds = %16, %15
  %22 = load i32, ptr %4, align 4
  ret i32 %22
}

; Function Attrs: mustprogress nounwind uwtable
define internal noundef i32 @_ZN12_GLOBAL__N_115AArch64FastISel39fastEmit_ISD_VECREDUCE_UMIN_MVT_v16i8_rEN4llvm3MVTEj(ptr noundef nonnull align 8 dereferenceable(192) %0, i16 %1, i32 noundef %2) #0 align 2 {
  %4 = alloca i32, align 4
  %5 = alloca %"class.llvm::MVT", align 2
  %6 = alloca ptr, align 8
  %7 = alloca i32, align 4
  %8 = alloca %"class.llvm::Register", align 4
  %9 = getelementptr inbounds nuw %"class.llvm::MVT", ptr %5, i32 0, i32 0
  store i16 %1, ptr %9, align 2
  store ptr %0, ptr %6, align 8
  store i32 %2, ptr %7, align 4
  %10 = load ptr, ptr %6, align 8
  %11 = getelementptr inbounds nuw %"class.llvm::MVT", ptr %5, i32 0, i32 0
  %12 = load i16, ptr %11, align 2
  %13 = zext i16 %12 to i32
  %14 = icmp ne i32 %13, 5
  br i1 %14, label %15, label %16

15:                                               ; preds = %3
  store i32 0, ptr %4, align 4
  br label %21

16:                                               ; preds = %3
  %17 = load i32, ptr %7, align 4
  %18 = call i32 @_ZN4llvm8FastISel14fastEmitInst_rEjPKNS_19TargetRegisterClassEj(ptr noundef nonnull align 8 dereferenceable(176) %10, i32 noundef 7333, ptr noundef @_ZN4llvm7AArch6412FPR8RegClassE, i32 noundef %17)
  %19 = getelementptr inbounds nuw %"class.llvm::Register", ptr %8, i32 0, i32 0
  store i32 %18, ptr %19, align 4
  %20 = call noundef i32 @_ZNK4llvm8RegistercvjEv(ptr noundef nonnull align 4 dereferenceable(4) %8)
  store i32 %20, ptr %4, align 4
  br label %21

21:                                               ; preds = %16, %15
  %22 = load i32, ptr %4, align 4
  ret i32 %22
}

; Function Attrs: mustprogress nounwind uwtable
define internal noundef i32 @_ZN12_GLOBAL__N_115AArch64FastISel38fastEmit_ISD_VECREDUCE_UMIN_MVT_v8i8_rEN4llvm3MVTEj(ptr noundef nonnull align 8 dereferenceable(192) %0, i16 %1, i32 noundef %2) #0 align 2 {
  %4 = alloca i32, align 4
  %5 = alloca %"class.llvm::MVT", align 2
  %6 = alloca ptr, align 8
  %7 = alloca i32, align 4
  %8 = alloca %"class.llvm::Register", align 4
  %9 = getelementptr inbounds nuw %"class.llvm::MVT", ptr %5, i32 0, i32 0
  store i16 %1, ptr %9, align 2
  store ptr %0, ptr %6, align 8
  store i32 %2, ptr %7, align 4
  %10 = load ptr, ptr %6, align 8
  %11 = getelementptr inbounds nuw %"class.llvm::MVT", ptr %5, i32 0, i32 0
  %12 = load i16, ptr %11, align 2
  %13 = zext i16 %12 to i32
  %14 = icmp ne i32 %13, 5
  br i1 %14, label %15, label %16

15:                                               ; preds = %3
  store i32 0, ptr %4, align 4
  br label %21

16:                                               ; preds = %3
  %17 = load i32, ptr %7, align 4
  %18 = call i32 @_ZN4llvm8FastISel14fastEmitInst_rEjPKNS_19TargetRegisterClassEj(ptr noundef nonnull align 8 dereferenceable(176) %10, i32 noundef 7337, ptr noundef @_ZN4llvm7AArch6412FPR8RegClassE, i32 noundef %17)
  %19 = getelementptr inbounds nuw %"class.llvm::Register", ptr %8, i32 0, i32 0
  store i32 %18, ptr %19, align 4
  %20 = call noundef i32 @_ZNK4llvm8RegistercvjEv(ptr noundef nonnull align 4 dereferenceable(4) %8)
  store i32 %20, ptr %4, align 4
  br label %21

21:                                               ; preds = %16, %15
  %22 = load i32, ptr %4, align 4
  ret i32 %22
}

; Function Attrs: mustprogress nounwind uwtable
define internal noundef i32 @_ZN12_GLOBAL__N_115AArch64FastISel29fastEmit_ISD_VECREDUCE_UMIN_rEN4llvm3MVTES2_j(ptr noundef nonnull align 8 dereferenceable(192) %0, i16 %1, i16 %2, i32 noundef %3) #0 align 2 {
  %5 = alloca i32, align 4
  %6 = alloca %"class.llvm::MVT", align 2
  %7 = alloca %"class.llvm::MVT", align 2
  %8 = alloca ptr, align 8
  %9 = alloca i32, align 4
  %10 = alloca %"class.llvm::MVT", align 2
  %11 = alloca %"class.llvm::MVT", align 2
  %12 = alloca %"class.llvm::MVT", align 2
  %13 = alloca %"class.llvm::MVT", align 2
  %14 = alloca %"class.llvm::MVT", align 2
  %15 = getelementptr inbounds nuw %"class.llvm::MVT", ptr %6, i32 0, i32 0
  store i16 %1, ptr %15, align 2
  %16 = getelementptr inbounds nuw %"class.llvm::MVT", ptr %7, i32 0, i32 0
  store i16 %2, ptr %16, align 2
  store ptr %0, ptr %8, align 8
  store i32 %3, ptr %9, align 4
  %17 = load ptr, ptr %8, align 8
  %18 = getelementptr inbounds nuw %"class.llvm::MVT", ptr %6, i32 0, i32 0
  %19 = load i16, ptr %18, align 2
  %20 = zext i16 %19 to i32
  switch i32 %20, label %46 [
    i32 38, label %21
    i32 39, label %26
    i32 49, label %31
    i32 50, label %36
    i32 60, label %41
  ]

21:                                               ; preds = %4
  call void @llvm.memcpy.p0.p0.i64(ptr align 2 %10, ptr align 2 %7, i64 2, i1 false)
  %22 = load i32, ptr %9, align 4
  %23 = getelementptr inbounds nuw %"class.llvm::MVT", ptr %10, i32 0, i32 0
  %24 = load i16, ptr %23, align 2
  %25 = call noundef i32 @_ZN12_GLOBAL__N_115AArch64FastISel38fastEmit_ISD_VECREDUCE_UMIN_MVT_v8i8_rEN4llvm3MVTEj(ptr noundef nonnull align 8 dereferenceable(192) %17, i16 %24, i32 noundef %22)
  store i32 %25, ptr %5, align 4
  br label %47

26:                                               ; preds = %4
  call void @llvm.memcpy.p0.p0.i64(ptr align 2 %11, ptr align 2 %7, i64 2, i1 false)
  %27 = load i32, ptr %9, align 4
  %28 = getelementptr inbounds nuw %"class.llvm::MVT", ptr %11, i32 0, i32 0
  %29 = load i16, ptr %28, align 2
  %30 = call noundef i32 @_ZN12_GLOBAL__N_115AArch64FastISel39fastEmit_ISD_VECREDUCE_UMIN_MVT_v16i8_rEN4llvm3MVTEj(ptr noundef nonnull align 8 dereferenceable(192) %17, i16 %29, i32 noundef %27)
  store i32 %30, ptr %5, align 4
  br label %47

31:                                               ; preds = %4
  call void @llvm.memcpy.p0.p0.i64(ptr align 2 %12, ptr align 2 %7, i64 2, i1 false)
  %32 = load i32, ptr %9, align 4
  %33 = getelementptr inbounds nuw %"class.llvm::MVT", ptr %12, i32 0, i32 0
  %34 = load i16, ptr %33, align 2
  %35 = call noundef i32 @_ZN12_GLOBAL__N_115AArch64FastISel39fastEmit_ISD_VECREDUCE_UMIN_MVT_v4i16_rEN4llvm3MVTEj(ptr noundef nonnull align 8 dereferenceable(192) %17, i16 %34, i32 noundef %32)
  store i32 %35, ptr %5, align 4
  br label %47

36:                                               ; preds = %4
  call void @llvm.memcpy.p0.p0.i64(ptr align 2 %13, ptr align 2 %7, i64 2, i1 false)
  %37 = load i32, ptr %9, align 4
  %38 = getelementptr inbounds nuw %"class.llvm::MVT", ptr %13, i32 0, i32 0
  %39 = load i16, ptr %38, align 2
  %40 = call noundef i32 @_ZN12_GLOBAL__N_115AArch64FastISel39fastEmit_ISD_VECREDUCE_UMIN_MVT_v8i16_rEN4llvm3MVTEj(ptr noundef nonnull align 8 dereferenceable(192) %17, i16 %39, i32 noundef %37)
  store i32 %40, ptr %5, align 4
  br label %47

41:                                               ; preds = %4
  call void @llvm.memcpy.p0.p0.i64(ptr align 2 %14, ptr align 2 %7, i64 2, i1 false)
  %42 = load i32, ptr %9, align 4
  %43 = getelementptr inbounds nuw %"class.llvm::MVT", ptr %14, i32 0, i32 0
  %44 = load i16, ptr %43, align 2
  %45 = call noundef i32 @_ZN12_GLOBAL__N_115AArch64FastISel39fastEmit_ISD_VECREDUCE_UMIN_MVT_v4i32_rEN4llvm3MVTEj(ptr noundef nonnull align 8 dereferenceable(192) %17, i16 %44, i32 noundef %42)
  store i32 %45, ptr %5, align 4
  br label %47

46:                                               ; preds = %4
  store i32 0, ptr %5, align 4
  br label %47

47:                                               ; preds = %46, %41, %36, %31, %26, %21
  %48 = load i32, ptr %5, align 4
  ret i32 %48
}